target datalayout = "e-m:e-p270:32:32-p271:32:32-p272:64:64-i64:64-i128:128-f80:128-n8:16:32:64-S128"
target triple = "x86_64-pc-linux-gnu"

%struct.CVodeMemRec = type { ptr, double, ptr, ptr, i32, i32, double, double, ptr, i32, i32, ptr, ptr, i32, [13 x ptr], ptr, ptr, ptr, ptr, ptr, ptr, ptr, ptr, ptr, i32, i32, double, i32, i32, i32, i32, i32, double, double, double, double, double, double, double, double, [14 x double], [6 x double], [13 x double], double, double, double, double, double, double, double, i32, double, i32, i64, i32, i32, i32, double, double, double, double, double, double, double, double, double, double, double, double, i64, i32, i64, i64, i64, i64, i64, i64, i64, i32, double, double, double, i64, i64, i64, i64, ptr, i32, ptr, i32, ptr, ptr, ptr, ptr, ptr, i64, double, i32, i64, double, double, double, i32, double, i32, i32, i32, i32, i32, ptr, i64, i32, [6 x [4 x double]], i32, i64, ptr, i32, ptr, ptr, double, double, double, ptr, ptr, ptr, double, double, i32, i32, i64, ptr, i32, ptr, i32, i32, [13 x double], [13 x double], [13 x ptr], i32 }
%struct.CVLsMemRec = type { i32, i32, i32, ptr, ptr, i32, double, i32, double, double, ptr, ptr, ptr, ptr, ptr, ptr, ptr, i64, i64, i64, i64, i64, i64, i64, i64, i64, i64, double, ptr, ptr, ptr, ptr, i32, ptr, ptr, ptr, ptr, i32, ptr, ptr, i32 }

@.str = private unnamed_addr constant [116 x i8] c"generated/home/dtcxzyw/WorkSpace/Projects/compilers/llvm-opt-benchmark/bench/sundials/sundials/src/cvode/cvode_ls.c\00", align 1
@.str.1 = private unnamed_addr constant [27 x i8] c"Integrator memory is NULL.\00", align 1
@__func__.cvLsPSolve = private unnamed_addr constant [11 x i8] c"cvLsPSolve\00", align 1
@.str.30 = private unnamed_addr constant [30 x i8] c"Linear solver memory is NULL.\00", align 1

; Function Attrs: nounwind uwtable
define i32 @cvLs_AccessLMem(ptr noundef %0, ptr noundef %1, ptr noundef %2, ptr noundef %3) #0 {
  %5 = alloca i32, align 4
  %6 = alloca ptr, align 8
  %7 = alloca ptr, align 8
  %8 = alloca ptr, align 8
  %9 = alloca ptr, align 8
  store ptr %0, ptr %6, align 8, !tbaa !3
  store ptr %1, ptr %7, align 8, !tbaa !117
  store ptr %2, ptr %8, align 8, !tbaa !119
  store ptr %3, ptr %9, align 8, !tbaa !121
  %10 = load ptr, ptr %6, align 8, !tbaa !3
  %11 = icmp eq ptr %10, null
  br i1 %11, label %12, label %14

12:                                               ; preds = %4
  %13 = load ptr, ptr %7, align 8, !tbaa !117
  call void (ptr, i32, i32, ptr, ptr, ptr, ...) @cvProcessError(ptr noundef null, i32 noundef -1, i32 noundef 1930, ptr noundef %13, ptr noundef @.str, ptr noundef @.str.1)
  store i32 -1, ptr %5, align 4
  br label %32

14:                                               ; preds = %4
  %15 = load ptr, ptr %6, align 8, !tbaa !3
  %16 = load ptr, ptr %8, align 8, !tbaa !119
  store ptr %15, ptr %16, align 8, !tbaa !11
  %17 = load ptr, ptr %8, align 8, !tbaa !119
  %18 = load ptr, ptr %17, align 8, !tbaa !11
  %19 = getelementptr inbounds nuw %struct.CVodeMemRec, ptr %18, i32 0, i32 94
  %20 = load ptr, ptr %19, align 8, !tbaa !79
  %21 = icmp eq ptr %20, null
  br i1 %21, label %22, label %26

22:                                               ; preds = %14
  %23 = load ptr, ptr %8, align 8, !tbaa !119
  %24 = load ptr, ptr %23, align 8, !tbaa !11
  %25 = load ptr, ptr %7, align 8, !tbaa !117
  call void (ptr, i32, i32, ptr, ptr, ptr, ...) @cvProcessError(ptr noundef %24, i32 noundef -2, i32 noundef 1937, ptr noundef %25, ptr noundef @.str, ptr noundef @.str.30)
  store i32 -2, ptr %5, align 4
  br label %32

26:                                               ; preds = %14
  %27 = load ptr, ptr %8, align 8, !tbaa !119
  %28 = load ptr, ptr %27, align 8, !tbaa !11
  %29 = getelementptr inbounds nuw %struct.CVodeMemRec, ptr %28, i32 0, i32 94
  %30 = load ptr, ptr %29, align 8, !tbaa !79
  %31 = load ptr, ptr %9, align 8, !tbaa !121
  store ptr %30, ptr %31, align 8, !tbaa !43
  store i32 0, ptr %5, align 4
  br label %32

32:                                               ; preds = %26, %22, %12
  %33 = load i32, ptr %5, align 4
  ret i32 %33
}

; Function Attrs: nounwind uwtable
define i32 @cvLsPSolve(ptr noundef %0, ptr noundef %1, ptr noundef %2, double noundef %3, i32 noundef %4) #0 {
  %6 = alloca i32, align 4
  %7 = alloca ptr, align 8
  %8 = alloca ptr, align 8
  %9 = alloca ptr, align 8
  %10 = alloca double, align 8
  %11 = alloca i32, align 4
  %12 = alloca ptr, align 8
  %13 = alloca ptr, align 8
  %14 = alloca i32, align 4
  %15 = alloca i32, align 4
  store ptr %0, ptr %7, align 8, !tbaa !3
  store ptr %1, ptr %8, align 8, !tbaa !85
  store ptr %2, ptr %9, align 8, !tbaa !85
  store double %3, ptr %10, align 8, !tbaa !91
  store i32 %4, ptr %11, align 4, !tbaa !20
  call void @llvm.lifetime.start.p0(i64 8, ptr %12) #7
  call void @llvm.lifetime.start.p0(i64 8, ptr %13) #7
  call void @llvm.lifetime.start.p0(i64 4, ptr %14) #7
  %16 = load ptr, ptr %7, align 8, !tbaa !3
  %17 = call i32 @cvLs_AccessLMem(ptr noundef %16, ptr noundef @__func__.cvLsPSolve, ptr noundef %12, ptr noundef %13)
  store i32 %17, ptr %14, align 4, !tbaa !20
  %18 = load i32, ptr %14, align 4, !tbaa !20
  %19 = icmp ne i32 %18, 0
  br i1 %19, label %20, label %22

20:                                               ; preds = %5
  %21 = load i32, ptr %14, align 4, !tbaa !20
  store i32 %21, ptr %6, align 4
  store i32 1, ptr %15, align 4
  br label %51

22:                                               ; preds = %5
  %23 = load ptr, ptr %13, align 8, !tbaa !43
  %24 = getelementptr inbounds nuw %struct.CVLsMemRec, ptr %23, i32 0, i32 29
  %25 = load ptr, ptr %24, align 8, !tbaa !62
  %26 = load ptr, ptr %12, align 8, !tbaa !11
  %27 = getelementptr inbounds nuw %struct.CVodeMemRec, ptr %26, i32 0, i32 38
  %28 = load double, ptr %27, align 8, !tbaa !94
  %29 = load ptr, ptr %13, align 8, !tbaa !43
  %30 = getelementptr inbounds nuw %struct.CVLsMemRec, ptr %29, i32 0, i32 15
  %31 = load ptr, ptr %30, align 8, !tbaa !87
  %32 = load ptr, ptr %13, align 8, !tbaa !43
  %33 = getelementptr inbounds nuw %struct.CVLsMemRec, ptr %32, i32 0, i32 16
  %34 = load ptr, ptr %33, align 8, !tbaa !88
  %35 = load ptr, ptr %8, align 8, !tbaa !85
  %36 = load ptr, ptr %9, align 8, !tbaa !85
  %37 = load ptr, ptr %12, align 8, !tbaa !11
  %38 = getelementptr inbounds nuw %struct.CVodeMemRec, ptr %37, i32 0, i32 44
  %39 = load double, ptr %38, align 8, !tbaa !89
  %40 = load double, ptr %10, align 8, !tbaa !91
  %41 = load i32, ptr %11, align 4, !tbaa !20
  %42 = load ptr, ptr %13, align 8, !tbaa !43
  %43 = getelementptr inbounds nuw %struct.CVLsMemRec, ptr %42, i32 0, i32 31
  %44 = load ptr, ptr %43, align 8, !tbaa !65
  %45 = call i32 %25(double noundef %28, ptr noundef %31, ptr noundef %34, ptr noundef %35, ptr noundef %36, double noundef %39, double noundef %40, i32 noundef %41, ptr noundef %44)
  store i32 %45, ptr %14, align 4, !tbaa !20
  %46 = load ptr, ptr %13, align 8, !tbaa !43
  %47 = getelementptr inbounds nuw %struct.CVLsMemRec, ptr %46, i32 0, i32 23
  %48 = load i64, ptr %47, align 8, !tbaa !100
  %49 = add nsw i64 %48, 1
  store i64 %49, ptr %47, align 8, !tbaa !100
  %50 = load i32, ptr %14, align 4, !tbaa !20
  store i32 %50, ptr %6, align 4
  store i32 1, ptr %15, align 4
  br label %51

51:                                               ; preds = %22, %20
  call void @llvm.lifetime.end.p0(i64 4, ptr %14) #7
  call void @llvm.lifetime.end.p0(i64 8, ptr %13) #7
  call void @llvm.lifetime.end.p0(i64 8, ptr %12) #7
  %52 = load i32, ptr %6, align 4
  ret i32 %52
}