; Function Attrs: nounwind uwtable
define i32 @cvLsPSolve(ptr noundef %0, ptr noundef %1, ptr noundef %2, double noundef %3, i32 noundef %4) #0 {
  %6 = icmp eq ptr %0, null
  br i1 %6, label %7, label %8

7:                                                ; preds = %5
  tail call void (ptr, i32, i32, ptr, ptr, ptr, ...) @cvProcessError(ptr noundef null, i32 noundef -1, i32 noundef 1930, ptr noundef nonnull @__func__.cvLsPSolve, ptr noundef nonnull @.str, ptr noundef nonnull @.str.1) #13
  br label %cvLs_AccessLMem.exit.thread

8:                                                ; preds = %5
  %9 = getelementptr inbounds nuw i8, ptr %0, i64 1040
  %10 = load ptr, ptr %9, align 8, !tbaa !69
  %11 = icmp eq ptr %10, null
  br i1 %11, label %12, label %cvLs_AccessLMem.exit

12:                                               ; preds = %8
  tail call void (ptr, i32, i32, ptr, ptr, ptr, ...) @cvProcessError(ptr noundef nonnull %0, i32 noundef -2, i32 noundef 1937, ptr noundef nonnull @__func__.cvLsPSolve, ptr noundef nonnull @.str, ptr noundef nonnull @.str.30) #13
  br label %cvLs_AccessLMem.exit.thread

cvLs_AccessLMem.exit:                             ; preds = %8
  %13 = getelementptr inbounds nuw i8, ptr %10, i64 224
  %14 = load ptr, ptr %13, align 8, !tbaa !109
  %15 = getelementptr inbounds nuw i8, ptr %0, i64 360
  %16 = load double, ptr %15, align 8, !tbaa !82
  %17 = getelementptr inbounds nuw i8, ptr %10, i64 112
  %18 = load ptr, ptr %17, align 8, !tbaa !76
  %19 = getelementptr inbounds nuw i8, ptr %10, i64 120
  %20 = load ptr, ptr %19, align 8, !tbaa !77
  %21 = getelementptr inbounds nuw i8, ptr %0, i64 648
  %22 = load double, ptr %21, align 8, !tbaa !78
  %23 = getelementptr inbounds nuw i8, ptr %10, i64 240
  %24 = load ptr, ptr %23, align 8, !tbaa !54
  %25 = tail call i32 %14(double noundef %16, ptr noundef %18, ptr noundef %20, ptr noundef %1, ptr noundef %2, double noundef %22, double noundef %3, i32 noundef %4, ptr noundef %24) #13
  %26 = getelementptr inbounds nuw i8, ptr %10, i64 176
  %27 = load i64, ptr %26, align 8, !tbaa !110
  %28 = add nsw i64 %27, 1
  store i64 %28, ptr %26, align 8, !tbaa !110
  br label %cvLs_AccessLMem.exit.thread

cvLs_AccessLMem.exit.thread:                      ; preds = %12, %7, %cvLs_AccessLMem.exit
  %.0 = phi i32 [ %25, %cvLs_AccessLMem.exit ], [ -2, %12 ], [ -1, %7 ]
  ret i32 %.0
}